(lp0
(S'cppflags'
p1
ccopy_reg
_reconstructor
p2
(cino.utils
SpaceList
p3
c__builtin__
list
p4
(lp5
S'-mmcu=atmega328p'
p6
aS'-DF_CPU=16000000L'
p7
aS'-DARDUINO=106'
p8
aS'-I/Applications/Arduino.app/Contents/Resources/Java/hardware/arduino/cores/arduino'
p9
aS'-ffunction-sections'
p10
aS'-fdata-sections'
p11
aS'-g'
p12
aS'-Os'
p13
aS'-w'
p14
aS'-I/Applications/Arduino.app/Contents/Resources/Java/hardware/arduino/variants/standard'
p15
aS'-Ilib/LED'
p16
aS'-Ilib/LED/Examples'
p17
aS'-Ilib/LED/Examples/Blink'
p18
aS'-Ilib/LED/Examples/Loop'
p19
aS'-Ilib/Button'
p20
aS'-Ilib/Button/Examples'
p21
aS'-Ilib/Button/Examples/Button'
p22
aS'-I/Applications/Arduino.app/Contents/Resources/Java/hardware/arduino/cores/arduino'
p23
aS'-I/Applications/Arduino.app/Contents/Resources/Java/hardware/arduino/cores/arduino/avr-libc'
p24
atp25
Rp26
tp27
a(S'cc'
p28
S'/Applications/Arduino.app/Contents/Resources/Java/hardware/tools/avr/bin/avr-gcc'
p29
tp30
a(S'arduino_libraries_dir'
p31
S'/Applications/Arduino.app/Contents/Resources/Java/libraries'
p32
tp33
a(S'avrdude'
p34
S'/Applications/Arduino.app/Contents/Resources/Java/hardware/tools/avr/bin/avrdude'
p35
tp36
a(S'ar'
p37
S'/Applications/Arduino.app/Contents/Resources/Java/hardware/tools/avr/bin/avr-ar'
p38
tp39
a(S'names'
p40
(dp41
S'cpp'
p42
S'%s.cpp'
p43
sS'obj'
p44
S'%s.o'
p45
sS'lib'
p46
S'lib%s.a'
p47
sS'deps'
p48
S'%s.d'
p49
stp50
a(S'ldflags'
p51
g2
(g3
g4
(lp52
g6
aS'-Wl,-Os'
p53
aS'-Wl,--gc-sections'
p54
atp55
Rp56
tp57
a(S'arduino_lib_version'
p58
g2
(cino.environment
Version
p59
c__builtin__
tuple
p60
(I1
I0
I6
tp61
tp62
Rp63
tp64
a(S'objcopy'
p65
S'/Applications/Arduino.app/Contents/Resources/Java/hardware/tools/avr/bin/avr-objcopy'
p66
tp67
a(S'board_models'
p68
cino.environment
BoardModels
p69
((lp70
(lp71
S'uno'
p72
a(dp73
S'bootloader'
p74
(dp75
S'extended_fuses'
p76
S'0x05'
p77
sS'high_fuses'
p78
S'0xde'
p79
sS'low_fuses'
p80
S'0xff'
p81
sS'lock_bits'
p82
S'0x0F'
p83
sS'file'
p84
S'optiboot_atmega328.hex'
p85
sS'path'
p86
S'optiboot'
p87
sS'unlock_bits'
p88
S'0x3F'
p89
ssS'upload'
p90
(dp91
S'speed'
p92
S'115200'
p93
sS'maximum_size'
p94
S'32256'
p95
sS'protocol'
p96
S'arduino'
p97
ssS'name'
p98
S'Arduino Uno'
p99
sS'build'
p100
(dp101
S'core'
p102
S'arduino'
p103
sS'mcu'
p104
S'atmega328p'
p105
sS'f_cpu'
p106
S'16000000L'
p107
sS'variant'
p108
S'standard'
p109
ssaa(lp110
S'atmega328'
p111
a(dp112
S'bootloader'
p113
(dp114
S'extended_fuses'
p115
S'0x05'
p116
sS'high_fuses'
p117
S'0xDA'
p118
sS'low_fuses'
p119
S'0xFF'
p120
sS'lock_bits'
p121
S'0x0F'
p122
sS'file'
p123
S'ATmegaBOOT_168_atmega328.hex'
p124
sS'path'
p125
S'atmega'
p126
sS'unlock_bits'
p127
S'0x3F'
p128
ssS'upload'
p129
(dp130
S'speed'
p131
S'57600'
p132
sS'maximum_size'
p133
S'30720'
p134
sS'protocol'
p135
S'arduino'
p136
ssS'name'
p137
S'Arduino Duemilanove w/ ATmega328'
p138
sS'build'
p139
(dp140
S'core'
p141
S'arduino'
p142
sS'mcu'
p143
S'atmega328p'
p144
sS'f_cpu'
p145
S'16000000L'
p146
sS'variant'
p147
S'standard'
p148
ssaa(lp149
S'diecimila'
p150
a(dp151
S'bootloader'
p152
(dp153
S'extended_fuses'
p154
S'0x00'
p155
sS'high_fuses'
p156
S'0xdd'
p157
sS'low_fuses'
p158
S'0xff'
p159
sS'lock_bits'
p160
S'0x0F'
p161
sS'file'
p162
S'ATmegaBOOT_168_diecimila.hex'
p163
sS'path'
p164
S'atmega'
p165
sS'unlock_bits'
p166
S'0x3F'
p167
ssS'upload'
p168
(dp169
S'speed'
p170
S'19200'
p171
sS'maximum_size'
p172
S'14336'
p173
sS'protocol'
p174
S'arduino'
p175
ssS'name'
p176
S'Arduino Diecimila or Duemilanove w/ ATmega168'
p177
sS'build'
p178
(dp179
S'core'
p180
S'arduino'
p181
sS'mcu'
p182
S'atmega168'
p183
sS'f_cpu'
p184
S'16000000L'
p185
sS'variant'
p186
S'standard'
p187
ssaa(lp188
S'nano328'
p189
a(dp190
S'bootloader'
p191
(dp192
S'extended_fuses'
p193
S'0x05'
p194
sS'high_fuses'
p195
S'0xDA'
p196
sS'low_fuses'
p197
S'0xFF'
p198
sS'lock_bits'
p199
S'0x0F'
p200
sS'file'
p201
S'ATmegaBOOT_168_atmega328.hex'
p202
sS'path'
p203
S'atmega'
p204
sS'unlock_bits'
p205
S'0x3F'
p206
ssS'upload'
p207
(dp208
S'speed'
p209
S'57600'
p210
sS'maximum_size'
p211
S'30720'
p212
sS'protocol'
p213
S'arduino'
p214
ssS'name'
p215
S'Arduino Nano w/ ATmega328'
p216
sS'build'
p217
(dp218
S'core'
p219
S'arduino'
p220
sS'mcu'
p221
S'atmega328p'
p222
sS'f_cpu'
p223
S'16000000L'
p224
sS'variant'
p225
S'eightanaloginputs'
p226
ssaa(lp227
S'nano'
p228
a(dp229
S'bootloader'
p230
(dp231
S'extended_fuses'
p232
S'0x00'
p233
sS'high_fuses'
p234
S'0xdd'
p235
sS'low_fuses'
p236
S'0xff'
p237
sS'lock_bits'
p238
S'0x0F'
p239
sS'file'
p240
S'ATmegaBOOT_168_diecimila.hex'
p241
sS'path'
p242
S'atmega'
p243
sS'unlock_bits'
p244
S'0x3F'
p245
ssS'upload'
p246
(dp247
S'speed'
p248
S'19200'
p249
sS'maximum_size'
p250
S'14336'
p251
sS'protocol'
p252
S'arduino'
p253
ssS'name'
p254
S'Arduino Nano w/ ATmega168'
p255
sS'build'
p256
(dp257
S'core'
p258
S'arduino'
p259
sS'mcu'
p260
S'atmega168'
p261
sS'f_cpu'
p262
S'16000000L'
p263
sS'variant'
p264
S'eightanaloginputs'
p265
ssaa(lp266
S'mega2560'
p267
a(dp268
S'bootloader'
p269
(dp270
S'extended_fuses'
p271
S'0xFD'
p272
sS'high_fuses'
p273
S'0xD8'
p274
sS'low_fuses'
p275
S'0xFF'
p276
sS'lock_bits'
p277
S'0x0F'
p278
sS'file'
p279
S'stk500boot_v2_mega2560.hex'
p280
sS'path'
p281
S'stk500v2'
p282
sS'unlock_bits'
p283
S'0x3F'
p284
ssS'upload'
p285
(dp286
S'speed'
p287
S'115200'
p288
sS'maximum_size'
p289
S'258048'
p290
sS'protocol'
p291
S'wiring'
p292
ssS'name'
p293
S'Arduino Mega 2560 or Mega ADK'
p294
sS'build'
p295
(dp296
S'core'
p297
S'arduino'
p298
sS'mcu'
p299
S'atmega2560'
p300
sS'f_cpu'
p301
S'16000000L'
p302
sS'variant'
p303
S'mega'
p304
ssaa(lp305
S'mega'
p306
a(dp307
S'bootloader'
p308
(dp309
S'extended_fuses'
p310
S'0xF5'
p311
sS'high_fuses'
p312
S'0xDA'
p313
sS'low_fuses'
p314
S'0xFF'
p315
sS'lock_bits'
p316
S'0x0F'
p317
sS'file'
p318
S'ATmegaBOOT_168_atmega1280.hex'
p319
sS'path'
p320
S'atmega'
p321
sS'unlock_bits'
p322
S'0x3F'
p323
ssS'upload'
p324
(dp325
S'speed'
p326
S'57600'
p327
sS'maximum_size'
p328
S'126976'
p329
sS'protocol'
p330
S'arduino'
p331
ssS'name'
p332
S'Arduino Mega (ATmega1280)'
p333
sS'build'
p334
(dp335
S'core'
p336
S'arduino'
p337
sS'mcu'
p338
S'atmega1280'
p339
sS'f_cpu'
p340
S'16000000L'
p341
sS'variant'
p342
S'mega'
p343
ssaa(lp344
S'leonardo'
p345
a(dp346
S'bootloader'
p347
(dp348
S'extended_fuses'
p349
S'0xcb'
p350
sS'high_fuses'
p351
S'0xd8'
p352
sS'low_fuses'
p353
S'0xff'
p354
sS'lock_bits'
p355
S'0x2F'
p356
sS'file'
p357
S'Caterina-Leonardo.hex'
p358
sS'path'
p359
S'caterina'
p360
sS'unlock_bits'
p361
S'0x3F'
p362
ssS'upload'
p363
(dp364
S'speed'
p365
S'57600'
p366
sS'maximum_size'
p367
S'28672'
p368
sS'protocol'
p369
S'avr109'
p370
sS'disable_flushing'
p371
S'true'
p372
ssS'name'
p373
S'Arduino Leonardo'
p374
sS'build'
p375
(dp376
S'core'
p377
S'arduino'
p378
sS'f_cpu'
p379
S'16000000L'
p380
sS'vid'
p381
S'0x2341'
p382
sS'pid'
p383
S'0x8036'
p384
sS'variant'
p385
S'leonardo'
p386
sS'mcu'
p387
S'atmega32u4'
p388
ssaa(lp389
S'esplora'
p390
a(dp391
S'bootloader'
p392
(dp393
S'extended_fuses'
p394
S'0xcb'
p395
sS'high_fuses'
p396
S'0xd8'
p397
sS'low_fuses'
p398
S'0xff'
p399
sS'lock_bits'
p400
S'0x2F'
p401
sS'file'
p402
S'Caterina-Esplora.hex'
p403
sS'path'
p404
S'caterina'
p405
sS'unlock_bits'
p406
S'0x3F'
p407
ssS'upload'
p408
(dp409
S'speed'
p410
S'57600'
p411
sS'maximum_size'
p412
S'28672'
p413
sS'protocol'
p414
S'avr109'
p415
sS'disable_flushing'
p416
S'true'
p417
ssS'name'
p418
S'Arduino Esplora'
p419
sS'build'
p420
(dp421
S'core'
p422
S'arduino'
p423
sS'f_cpu'
p424
S'16000000L'
p425
sS'vid'
p426
S'0x2341'
p427
sS'pid'
p428
S'0x803C'
p429
sS'variant'
p430
S'leonardo'
p431
sS'mcu'
p432
S'atmega32u4'
p433
ssaa(lp434
S'micro'
p435
a(dp436
S'bootloader'
p437
(dp438
S'extended_fuses'
p439
S'0xcb'
p440
sS'high_fuses'
p441
S'0xd8'
p442
sS'low_fuses'
p443
S'0xff'
p444
sS'lock_bits'
p445
S'0x2F'
p446
sS'file'
p447
S'Caterina-Micro.hex'
p448
sS'path'
p449
S'caterina'
p450
sS'unlock_bits'
p451
S'0x3F'
p452
ssS'upload'
p453
(dp454
S'speed'
p455
S'57600'
p456
sS'maximum_size'
p457
S'28672'
p458
sS'protocol'
p459
S'avr109'
p460
sS'disable_flushing'
p461
S'true'
p462
ssS'name'
p463
S'Arduino Micro'
p464
sS'build'
p465
(dp466
S'core'
p467
S'arduino'
p468
sS'f_cpu'
p469
S'16000000L'
p470
sS'vid'
p471
S'0x2341'
p472
sS'pid'
p473
S'0x8037'
p474
sS'variant'
p475
S'micro'
p476
sS'mcu'
p477
S'atmega32u4'
p478
ssaa(lp479
S'mini328'
p480
a(dp481
S'bootloader'
p482
(dp483
S'extended_fuses'
p484
S'0x05'
p485
sS'high_fuses'
p486
S'0xd8'
p487
sS'low_fuses'
p488
S'0xff'
p489
sS'lock_bits'
p490
S'0x0F'
p491
sS'file'
p492
S'optiboot_atmega328-Mini.hex'
p493
sS'path'
p494
S'optiboot'
p495
sS'unlock_bits'
p496
S'0x3F'
p497
ssS'upload'
p498
(dp499
S'speed'
p500
S'115200'
p501
sS'maximum_size'
p502
S'28672'
p503
sS'protocol'
p504
S'arduino'
p505
ssS'name'
p506
S'Arduino Mini w/ ATmega328'
p507
sS'build'
p508
(dp509
S'core'
p510
S'arduino'
p511
sS'mcu'
p512
S'atmega328p'
p513
sS'f_cpu'
p514
S'16000000L'
p515
sS'variant'
p516
S'eightanaloginputs'
p517
ssaa(lp518
S'mini'
p519
a(dp520
S'bootloader'
p521
(dp522
S'extended_fuses'
p523
S'0x00'
p524
sS'high_fuses'
p525
S'0xdd'
p526
sS'low_fuses'
p527
S'0xff'
p528
sS'lock_bits'
p529
S'0x0F'
p530
sS'file'
p531
S'ATmegaBOOT_168_ng.hex'
p532
sS'path'
p533
S'atmega'
p534
sS'unlock_bits'
p535
S'0x3F'
p536
ssS'upload'
p537
(dp538
S'speed'
p539
S'19200'
p540
sS'maximum_size'
p541
S'14336'
p542
sS'protocol'
p543
S'arduino'
p544
ssS'name'
p545
S'Arduino Mini w/ ATmega168'
p546
sS'build'
p547
(dp548
S'core'
p549
S'arduino'
p550
sS'mcu'
p551
S'atmega168'
p552
sS'f_cpu'
p553
S'16000000L'
p554
sS'variant'
p555
S'eightanaloginputs'
p556
ssaa(lp557
S'ethernet'
p558
a(dp559
S'bootloader'
p560
(dp561
S'extended_fuses'
p562
S'0x05'
p563
sS'high_fuses'
p564
S'0xde'
p565
sS'low_fuses'
p566
S'0xff'
p567
sS'lock_bits'
p568
S'0x0F'
p569
sS'file'
p570
S'optiboot_atmega328.hex'
p571
sS'path'
p572
S'optiboot'
p573
sS'unlock_bits'
p574
S'0x3F'
p575
ssS'upload'
p576
(dp577
S'speed'
p578
S'115200'
p579
sS'maximum_size'
p580
S'32256'
p581
sS'protocol'
p582
S'arduino'
p583
ssS'name'
p584
S'Arduino Ethernet'
p585
sS'build'
p586
(dp587
S'f_cpu'
p588
S'16000000L'
p589
sS'mcu'
p590
S'atmega328p'
p591
sS'variant'
p592
S'ethernet'
p593
sS'core'
p594
S'arduino'
p595
ssaa(lp596
S'fio'
p597
a(dp598
S'bootloader'
p599
(dp600
S'extended_fuses'
p601
S'0x05'
p602
sS'high_fuses'
p603
S'0xDA'
p604
sS'low_fuses'
p605
S'0xFF'
p606
sS'lock_bits'
p607
S'0x0F'
p608
sS'file'
p609
S'ATmegaBOOT_168_atmega328_pro_8MHz.hex'
p610
sS'path'
p611
S'arduino:atmega'
p612
sS'unlock_bits'
p613
S'0x3F'
p614
ssS'upload'
p615
(dp616
S'speed'
p617
S'57600'
p618
sS'maximum_size'
p619
S'30720'
p620
sS'protocol'
p621
S'arduino'
p622
ssS'name'
p623
S'Arduino Fio'
p624
sS'build'
p625
(dp626
S'core'
p627
S'arduino'
p628
sS'mcu'
p629
S'atmega328p'
p630
sS'f_cpu'
p631
S'8000000L'
p632
sS'variant'
p633
S'eightanaloginputs'
p634
ssaa(lp635
S'bt328'
p636
a(dp637
S'bootloader'
p638
(dp639
S'extended_fuses'
p640
S'0x05'
p641
sS'high_fuses'
p642
S'0xd8'
p643
sS'low_fuses'
p644
S'0xff'
p645
sS'lock_bits'
p646
S'0x0F'
p647
sS'file'
p648
S'ATmegaBOOT_168_atmega328_bt.hex'
p649
sS'path'
p650
S'bt'
p651
sS'unlock_bits'
p652
S'0x3F'
p653
ssS'upload'
p654
(dp655
S'speed'
p656
S'19200'
p657
sS'maximum_size'
p658
S'28672'
p659
sS'protocol'
p660
S'arduino'
p661
sS'disable_flushing'
p662
S'true'
p663
ssS'name'
p664
S'Arduino BT w/ ATmega328'
p665
sS'build'
p666
(dp667
S'core'
p668
S'arduino'
p669
sS'mcu'
p670
S'atmega328p'
p671
sS'f_cpu'
p672
S'16000000L'
p673
sS'variant'
p674
S'eightanaloginputs'
p675
ssaa(lp676
S'bt'
p677
a(dp678
S'bootloader'
p679
(dp680
S'extended_fuses'
p681
S'0x00'
p682
sS'high_fuses'
p683
S'0xdd'
p684
sS'low_fuses'
p685
S'0xff'
p686
sS'lock_bits'
p687
S'0x0F'
p688
sS'file'
p689
S'ATmegaBOOT_168.hex'
p690
sS'path'
p691
S'bt'
p692
sS'unlock_bits'
p693
S'0x3F'
p694
ssS'upload'
p695
(dp696
S'speed'
p697
S'19200'
p698
sS'maximum_size'
p699
S'14336'
p700
sS'protocol'
p701
S'arduino'
p702
sS'disable_flushing'
p703
S'true'
p704
ssS'name'
p705
S'Arduino BT w/ ATmega168'
p706
sS'build'
p707
(dp708
S'core'
p709
S'arduino'
p710
sS'mcu'
p711
S'atmega168'
p712
sS'f_cpu'
p713
S'16000000L'
p714
sS'variant'
p715
S'eightanaloginputs'
p716
ssaa(lp717
S'LilyPadUSB'
p718
a(dp719
S'bootloader'
p720
(dp721
S'extended_fuses'
p722
S'0xce'
p723
sS'high_fuses'
p724
S'0xd8'
p725
sS'low_fuses'
p726
S'0xff'
p727
sS'lock_bits'
p728
S'0x2F'
p729
sS'file'
p730
S'Caterina-LilyPadUSB.hex'
p731
sS'path'
p732
S'caterina-LilyPadUSB'
p733
sS'unlock_bits'
p734
S'0x3F'
p735
ssS'upload'
p736
(dp737
S'speed'
p738
S'57600'
p739
sS'maximum_size'
p740
S'28672'
p741
sS'protocol'
p742
S'avr109'
p743
sS'disable_flushing'
p744
S'true'
p745
ssS'name'
p746
S'LilyPad Arduino USB'
p747
sS'build'
p748
(dp749
S'core'
p750
S'arduino'
p751
sS'f_cpu'
p752
S'8000000L'
p753
sS'vid'
p754
S'0x1B4F'
p755
sS'pid'
p756
S'0x9208'
p757
sS'variant'
p758
S'leonardo'
p759
sS'mcu'
p760
S'atmega32u4'
p761
ssaa(lp762
S'lilypad328'
p763
a(dp764
S'bootloader'
p765
(dp766
S'extended_fuses'
p767
S'0x05'
p768
sS'high_fuses'
p769
S'0xDA'
p770
sS'low_fuses'
p771
S'0xFF'
p772
sS'lock_bits'
p773
S'0x0F'
p774
sS'file'
p775
S'ATmegaBOOT_168_atmega328_pro_8MHz.hex'
p776
sS'path'
p777
S'atmega'
p778
sS'unlock_bits'
p779
S'0x3F'
p780
ssS'upload'
p781
(dp782
S'speed'
p783
S'57600'
p784
sS'maximum_size'
p785
S'30720'
p786
sS'protocol'
p787
S'arduino'
p788
ssS'name'
p789
S'LilyPad Arduino w/ ATmega328'
p790
sS'build'
p791
(dp792
S'core'
p793
S'arduino'
p794
sS'mcu'
p795
S'atmega328p'
p796
sS'f_cpu'
p797
S'8000000L'
p798
sS'variant'
p799
S'standard'
p800
ssaa(lp801
S'lilypad'
p802
a(dp803
S'bootloader'
p804
(dp805
S'extended_fuses'
p806
S'0x00'
p807
sS'high_fuses'
p808
S'0xdd'
p809
sS'low_fuses'
p810
S'0xe2'
p811
sS'lock_bits'
p812
S'0x0F'
p813
sS'file'
p814
S'LilyPadBOOT_168.hex'
p815
sS'path'
p816
S'lilypad'
p817
sS'unlock_bits'
p818
S'0x3F'
p819
ssS'upload'
p820
(dp821
S'speed'
p822
S'19200'
p823
sS'maximum_size'
p824
S'14336'
p825
sS'protocol'
p826
S'arduino'
p827
ssS'name'
p828
S'LilyPad Arduino w/ ATmega168'
p829
sS'build'
p830
(dp831
S'core'
p832
S'arduino'
p833
sS'mcu'
p834
S'atmega168'
p835
sS'f_cpu'
p836
S'8000000L'
p837
sS'variant'
p838
S'standard'
p839
ssaa(lp840
S'pro5v328'
p841
a(dp842
S'bootloader'
p843
(dp844
S'extended_fuses'
p845
S'0x05'
p846
sS'high_fuses'
p847
S'0xDA'
p848
sS'low_fuses'
p849
S'0xFF'
p850
sS'lock_bits'
p851
S'0x0F'
p852
sS'file'
p853
S'ATmegaBOOT_168_atmega328.hex'
p854
sS'path'
p855
S'atmega'
p856
sS'unlock_bits'
p857
S'0x3F'
p858
ssS'upload'
p859
(dp860
S'speed'
p861
S'57600'
p862
sS'maximum_size'
p863
S'30720'
p864
sS'protocol'
p865
S'arduino'
p866
ssS'name'
p867
S'Arduino Pro or Pro Mini (5V, 16 MHz) w/ ATmega328'
p868
sS'build'
p869
(dp870
S'core'
p871
S'arduino'
p872
sS'mcu'
p873
S'atmega328p'
p874
sS'f_cpu'
p875
S'16000000L'
p876
sS'variant'
p877
S'standard'
p878
ssaa(lp879
S'pro5v'
p880
a(dp881
S'bootloader'
p882
(dp883
S'extended_fuses'
p884
S'0x00'
p885
sS'high_fuses'
p886
S'0xdd'
p887
sS'low_fuses'
p888
S'0xff'
p889
sS'lock_bits'
p890
S'0x0F'
p891
sS'file'
p892
S'ATmegaBOOT_168_diecimila.hex'
p893
sS'path'
p894
S'atmega'
p895
sS'unlock_bits'
p896
S'0x3F'
p897
ssS'upload'
p898
(dp899
S'speed'
p900
S'19200'
p901
sS'maximum_size'
p902
S'14336'
p903
sS'protocol'
p904
S'arduino'
p905
ssS'name'
p906
S'Arduino Pro or Pro Mini (5V, 16 MHz) w/ ATmega168'
p907
sS'build'
p908
(dp909
S'core'
p910
S'arduino'
p911
sS'mcu'
p912
S'atmega168'
p913
sS'f_cpu'
p914
S'16000000L'
p915
sS'variant'
p916
S'standard'
p917
ssaa(lp918
S'pro328'
p919
a(dp920
S'bootloader'
p921
(dp922
S'extended_fuses'
p923
S'0x05'
p924
sS'high_fuses'
p925
S'0xDA'
p926
sS'low_fuses'
p927
S'0xFF'
p928
sS'lock_bits'
p929
S'0x0F'
p930
sS'file'
p931
S'ATmegaBOOT_168_atmega328_pro_8MHz.hex'
p932
sS'path'
p933
S'atmega'
p934
sS'unlock_bits'
p935
S'0x3F'
p936
ssS'upload'
p937
(dp938
S'speed'
p939
S'57600'
p940
sS'maximum_size'
p941
S'30720'
p942
sS'protocol'
p943
S'arduino'
p944
ssS'name'
p945
S'Arduino Pro or Pro Mini (3.3V, 8 MHz) w/ ATmega328'
p946
sS'build'
p947
(dp948
S'core'
p949
S'arduino'
p950
sS'mcu'
p951
S'atmega328p'
p952
sS'f_cpu'
p953
S'8000000L'
p954
sS'variant'
p955
S'standard'
p956
ssaa(lp957
S'pro'
p958
a(dp959
S'bootloader'
p960
(dp961
S'extended_fuses'
p962
S'0x00'
p963
sS'high_fuses'
p964
S'0xdd'
p965
sS'low_fuses'
p966
S'0xc6'
p967
sS'lock_bits'
p968
S'0x0F'
p969
sS'file'
p970
S'ATmegaBOOT_168_pro_8MHz.hex'
p971
sS'path'
p972
S'atmega'
p973
sS'unlock_bits'
p974
S'0x3F'
p975
ssS'upload'
p976
(dp977
S'speed'
p978
S'19200'
p979
sS'maximum_size'
p980
S'14336'
p981
sS'protocol'
p982
S'arduino'
p983
ssS'name'
p984
S'Arduino Pro or Pro Mini (3.3V, 8 MHz) w/ ATmega168'
p985
sS'build'
p986
(dp987
S'core'
p988
S'arduino'
p989
sS'mcu'
p990
S'atmega168'
p991
sS'f_cpu'
p992
S'8000000L'
p993
sS'variant'
p994
S'standard'
p995
ssaa(lp996
S'atmega168'
p997
a(dp998
S'bootloader'
p999
(dp1000
S'extended_fuses'
p1001
S'0x00'
p1002
sS'high_fuses'
p1003
S'0xdd'
p1004
sS'low_fuses'
p1005
S'0xff'
p1006
sS'lock_bits'
p1007
S'0x0F'
p1008
sS'file'
p1009
S'ATmegaBOOT_168_ng.hex'
p1010
sS'path'
p1011
S'atmega'
p1012
sS'unlock_bits'
p1013
S'0x3F'
p1014
ssS'upload'
p1015
(dp1016
S'speed'
p1017
S'19200'
p1018
sS'maximum_size'
p1019
S'14336'
p1020
sS'protocol'
p1021
S'arduino'
p1022
ssS'name'
p1023
S'Arduino NG or older w/ ATmega168'
p1024
sS'build'
p1025
(dp1026
S'core'
p1027
S'arduino'
p1028
sS'mcu'
p1029
S'atmega168'
p1030
sS'f_cpu'
p1031
S'16000000L'
p1032
sS'variant'
p1033
S'standard'
p1034
ssaa(lp1035
S'atmega8'
p1036
a(dp1037
S'bootloader'
p1038
(dp1039
S'high_fuses'
p1040
S'0xca'
p1041
sS'low_fuses'
p1042
S'0xdf'
p1043
sS'lock_bits'
p1044
S'0x0F'
p1045
sS'file'
p1046
S'ATmegaBOOT-prod-firmware-2009-11-07.hex'
p1047
sS'path'
p1048
S'atmega8'
p1049
sS'unlock_bits'
p1050
S'0x3F'
p1051
ssS'upload'
p1052
(dp1053
S'speed'
p1054
S'19200'
p1055
sS'maximum_size'
p1056
S'7168'
p1057
sS'protocol'
p1058
S'arduino'
p1059
ssS'name'
p1060
S'Arduino NG or older w/ ATmega8'
p1061
sS'build'
p1062
(dp1063
S'core'
p1064
S'arduino'
p1065
sS'mcu'
p1066
S'atmega8'
p1067
sS'f_cpu'
p1068
S'16000000L'
p1069
sS'variant'
p1070
S'standard'
p1071
ssaa(lp1072
S'robotControl'
p1073
a(dp1074
S'bootloader'
p1075
(dp1076
S'extended_fuses'
p1077
S'0xcb'
p1078
sS'high_fuses'
p1079
S'0xd8'
p1080
sS'low_fuses'
p1081
S'0xff'
p1082
sS'lock_bits'
p1083
S'0x2F'
p1084
sS'file'
p1085
S'Caterina-Robot-Control.hex'
p1086
sS'path'
p1087
S'caterina-Arduino_Robot'
p1088
sS'unlock_bits'
p1089
S'0x3F'
p1090
ssS'upload'
p1091
(dp1092
S'speed'
p1093
S'57600'
p1094
sS'maximum_size'
p1095
S'28672'
p1096
sS'protocol'
p1097
S'avr109'
p1098
sS'disable_flushing'
p1099
S'true'
p1100
ssS'name'
p1101
S'Arduino Robot Control'
p1102
sS'build'
p1103
(dp1104
S'core'
p1105
S'robot'
p1106
sS'f_cpu'
p1107
S'16000000L'
p1108
sS'vid'
p1109
S'0x2341'
p1110
sS'pid'
p1111
S'0x8038'
p1112
sS'variant'
p1113
S'robot_control'
p1114
sS'mcu'
p1115
S'atmega32u4'
p1116
ssaa(lp1117
S'robotMotor'
p1118
a(dp1119
S'bootloader'
p1120
(dp1121
S'extended_fuses'
p1122
S'0xcb'
p1123
sS'high_fuses'
p1124
S'0xd8'
p1125
sS'low_fuses'
p1126
S'0xff'
p1127
sS'lock_bits'
p1128
S'0x2F'
p1129
sS'file'
p1130
S'Caterina-Robot-Motor.hex'
p1131
sS'path'
p1132
S'caterina-Arduino_Robot'
p1133
sS'unlock_bits'
p1134
S'0x3F'
p1135
ssS'upload'
p1136
(dp1137
S'speed'
p1138
S'57600'
p1139
sS'maximum_size'
p1140
S'28672'
p1141
sS'protocol'
p1142
S'avr109'
p1143
sS'disable_flushing'
p1144
S'true'
p1145
ssS'name'
p1146
S'Arduino Robot Motor'
p1147
sS'build'
p1148
(dp1149
S'core'
p1150
S'robot'
p1151
sS'f_cpu'
p1152
S'16000000L'
p1153
sS'vid'
p1154
S'0x2341'
p1155
sS'pid'
p1156
S'0x8039'
p1157
sS'variant'
p1158
S'robot_motor'
p1159
sS'mcu'
p1160
S'atmega32u4'
p1161
ssaa(lp1162
S'pro328_20'
p1163
a(dp1164
S'bootloader'
p1165
(dp1166
S'extended_fuses'
p1167
S'0x05'
p1168
sS'high_fuses'
p1169
S'0xDE'
p1170
sS'low_fuses'
p1171
S'0xFF'
p1172
sS'lock_bits'
p1173
S'0x0F'
p1174
sS'file'
p1175
S'optiboot/optiboot_atmega328.hex'
p1176
sS'unlock_bits'
p1177
S'0x3F'
p1178
ssS'upload'
p1179
(dp1180
S'speed'
p1181
S'115200'
p1182
sS'maximum_size'
p1183
S'32256'
p1184
sS'protocol'
p1185
S'arduino'
p1186
sS'maximum_data_size'
p1187
S'2048'
p1188
ssS'name'
p1189
S'Arduino pro 328 20mhz'
p1190
sS'build'
p1191
(dp1192
S'core'
p1193
S'arduino'
p1194
sS'mcu'
p1195
S'atmega328p'
p1196
sS'f_cpu'
p1197
S'20000000L'
p1198
sS'variant'
p1199
S'standard'
p1200
ssaatp1201
Rp1202
(dp1203
S'default'
p1204
S'uno'
p1205
sbtp1206
a(S'used_libs'
p1207
(lp1208
S'lib/LED'
p1209
aS'lib/Button'
p1210
aS'/Applications/Arduino.app/Contents/Resources/Java/hardware/arduino/cores/arduino'
p1211
atp1212
a(S'make'
p1213
S'/Applications/Arduino.app/Contents/Resources/Java/hardware/tools/avr/bin/make'
p1214
tp1215
a(S'build_dir'
p1216
S'.build/uno'
p1217
tp1218
a(S'cxx'
p1219
S'/Applications/Arduino.app/Contents/Resources/Java/hardware/tools/avr/bin/avr-g++'
p1220
tp1221
a(S'cflags'
p1222
g2
(g3
g4
(lp1223
tp1224
Rp1225
tp1226
a(S'cxxflags'
p1227
g2
(g3
g4
(lp1228
S'-fno-exceptions'
p1229
atp1230
Rp1231
tp1232
a(S'arduino_variants_dir'
p1233
S'/Applications/Arduino.app/Contents/Resources/Java/hardware/arduino/variants'
p1234
tp1235
a(S'serial'
p1236
S'/usr/local/bin/picocom'
p1237
tp1238
a(S'stty'
p1239
S'/bin/stty'
p1240
tp1241
a(S'version.txt'
p1242
S'/Applications/Arduino.app/Contents/Resources/Java/lib/version.txt'
p1243
tp1244
a(S'arduino_core_dir'
p1245
g1211
tp1246
a(S'boards.txt'
p1247
S'/Applications/Arduino.app/Contents/Resources/Java/hardware/arduino/boards.txt'
p1248
tp1249
a(S'avrdude.conf'
p1250
S'/Applications/Arduino.app/Contents/Resources/Java/hardware/tools/avr/etc/avrdude.conf'
p1251
tp1252
a(S'deps'
p1253
g2
(g3
g4
(lp1254
S'.build/uno/src/dependencies.d'
p1255
aS'.build/uno/arduino/dependencies.d'
p1256
aS'.build/uno/LED/dependencies.d'
p1257
aS'.build/uno/Button/dependencies.d'
p1258
atp1259
Rp1260
tp1261
a.